target datalayout = "e-m:e-p270:32:32-p271:32:32-p272:64:64-i64:64-i128:128-f80:128-n8:16:32:64-S128"
target triple = "x86_64-pc-linux-gnu"

; Function Attrs: nounwind uwtable
define internal void @decode_deep_tvdc32(ptr noundef %0, ptr noundef %1, i32 noundef %2, i32 noundef %3, i32 noundef %4, i32 noundef %5, ptr noundef %6) #1 {
  %8 = alloca ptr, align 8
  %9 = alloca ptr, align 8
  %10 = alloca i32, align 4
  %11 = alloca i32, align 4
  %12 = alloca i32, align 4
  %13 = alloca i32, align 4
  %14 = alloca ptr, align 8
  %15 = alloca i32, align 4
  %16 = alloca i32, align 4
  %17 = alloca i32, align 4
  %18 = alloca i8, align 1
  %19 = alloca i32, align 4
  %20 = alloca i32, align 4
  %21 = alloca i32, align 4
  %22 = alloca i32, align 4
  store ptr %0, ptr %8, align 8, !tbaa !45
  store ptr %1, ptr %9, align 8, !tbaa !45
  store i32 %2, ptr %10, align 4, !tbaa !35
  store i32 %3, ptr %11, align 4, !tbaa !35
  store i32 %4, ptr %12, align 4, !tbaa !35
  store i32 %5, ptr %13, align 4, !tbaa !35
  store ptr %6, ptr %14, align 8, !tbaa !156
  call void @llvm.lifetime.start.p0(i64 4, ptr %15) #9
  store i32 0, ptr %15, align 4, !tbaa !35
  call void @llvm.lifetime.start.p0(i64 4, ptr %16) #9
  store i32 0, ptr %16, align 4, !tbaa !35
  call void @llvm.lifetime.start.p0(i64 4, ptr %17) #9
  store i32 0, ptr %17, align 4, !tbaa !35
  call void @llvm.lifetime.start.p0(i64 1, ptr %18) #9
  store i8 0, ptr %18, align 1, !tbaa !34
  call void @llvm.lifetime.start.p0(i64 4, ptr %19) #9
  call void @llvm.lifetime.start.p0(i64 4, ptr %20) #9
  store i32 0, ptr %19, align 4, !tbaa !35
  br label %23

23:                                               ; preds = %174, %7
  %24 = load i32, ptr %19, align 4, !tbaa !35
  %25 = load i32, ptr %10, align 4, !tbaa !35
  %26 = mul nsw i32 %25, 2
  %27 = icmp slt i32 %24, %26
  br i1 %27, label %28, label %175

28:                                               ; preds = %23
  call void @llvm.lifetime.start.p0(i64 4, ptr %21) #9
  %29 = load ptr, ptr %14, align 8, !tbaa !156
  %30 = load i32, ptr %19, align 4, !tbaa !35
  %31 = and i32 %30, 1
  %32 = icmp ne i32 %31, 0
  br i1 %32, label %33, label %42

33:                                               ; preds = %28
  %34 = load ptr, ptr %9, align 8, !tbaa !45
  %35 = load i32, ptr %19, align 4, !tbaa !35
  %36 = ashr i32 %35, 1
  %37 = sext i32 %36 to i64
  %38 = getelementptr inbounds i8, ptr %34, i64 %37
  %39 = load i8, ptr %38, align 1, !tbaa !34
  %40 = zext i8 %39 to i32
  %41 = and i32 %40, 15
  br label %51

42:                                               ; preds = %28
  %43 = load ptr, ptr %9, align 8, !tbaa !45
  %44 = load i32, ptr %19, align 4, !tbaa !35
  %45 = ashr i32 %44, 1
  %46 = sext i32 %45 to i64
  %47 = getelementptr inbounds i8, ptr %43, i64 %46
  %48 = load i8, ptr %47, align 1, !tbaa !34
  %49 = zext i8 %48 to i32
  %50 = ashr i32 %49, 4
  br label %51

51:                                               ; preds = %42, %33
  %52 = phi i32 [ %41, %33 ], [ %50, %42 ]
  %53 = sext i32 %52 to i64
  %54 = getelementptr inbounds i16, ptr %29, i64 %53
  %55 = load i16, ptr %54, align 2, !tbaa !115
  %56 = sext i16 %55 to i32
  store i32 %56, ptr %21, align 4, !tbaa !35
  %57 = load i32, ptr %19, align 4, !tbaa !35
  %58 = add nsw i32 %57, 1
  store i32 %58, ptr %19, align 4, !tbaa !35
  %59 = load i32, ptr %21, align 4, !tbaa !35
  %60 = icmp ne i32 %59, 0
  br i1 %60, label %61, label %81

61:                                               ; preds = %51
  %62 = load i32, ptr %21, align 4, !tbaa !35
  %63 = load i8, ptr %18, align 1, !tbaa !34
  %64 = sext i8 %63 to i32
  %65 = add nsw i32 %64, %62
  %66 = trunc i32 %65 to i8
  store i8 %66, ptr %18, align 1, !tbaa !34
  %67 = load i8, ptr %18, align 1, !tbaa !34
  %68 = load ptr, ptr %8, align 8, !tbaa !45
  %69 = load i32, ptr %16, align 4, !tbaa !35
  %70 = load i32, ptr %13, align 4, !tbaa !35
  %71 = mul nsw i32 %69, %70
  %72 = load i32, ptr %15, align 4, !tbaa !35
  %73 = mul nsw i32 %72, 4
  %74 = add nsw i32 %71, %73
  %75 = load i32, ptr %17, align 4, !tbaa !35
  %76 = add nsw i32 %74, %75
  %77 = sext i32 %76 to i64
  %78 = getelementptr inbounds i8, ptr %68, i64 %77
  store i8 %67, ptr %78, align 1, !tbaa !34
  %79 = load i32, ptr %15, align 4, !tbaa !35
  %80 = add nsw i32 %79, 1
  store i32 %80, ptr %15, align 4, !tbaa !35
  br label %150

81:                                               ; preds = %51
  %82 = load i32, ptr %19, align 4, !tbaa !35
  %83 = load i32, ptr %10, align 4, !tbaa !35
  %84 = mul nsw i32 %83, 2
  %85 = icmp sge i32 %82, %84
  br i1 %85, label %86, label %87

86:                                               ; preds = %81
  store i32 1, ptr %22, align 4
  br label %172

87:                                               ; preds = %81
  %88 = load i32, ptr %19, align 4, !tbaa !35
  %89 = and i32 %88, 1
  %90 = icmp ne i32 %89, 0
  br i1 %90, label %91, label %100

91:                                               ; preds = %87
  %92 = load ptr, ptr %9, align 8, !tbaa !45
  %93 = load i32, ptr %19, align 4, !tbaa !35
  %94 = ashr i32 %93, 1
  %95 = sext i32 %94 to i64
  %96 = getelementptr inbounds i8, ptr %92, i64 %95
  %97 = load i8, ptr %96, align 1, !tbaa !34
  %98 = zext i8 %97 to i32
  %99 = and i32 %98, 15
  br label %109

100:                                              ; preds = %87
  %101 = load ptr, ptr %9, align 8, !tbaa !45
  %102 = load i32, ptr %19, align 4, !tbaa !35
  %103 = ashr i32 %102, 1
  %104 = sext i32 %103 to i64
  %105 = getelementptr inbounds i8, ptr %101, i64 %104
  %106 = load i8, ptr %105, align 1, !tbaa !34
  %107 = zext i8 %106 to i32
  %108 = ashr i32 %107, 4
  br label %109

109:                                              ; preds = %100, %91
  %110 = phi i32 [ %99, %91 ], [ %108, %100 ]
  %111 = add nsw i32 %110, 1
  store i32 %111, ptr %21, align 4, !tbaa !35
  %112 = load i32, ptr %19, align 4, !tbaa !35
  %113 = add nsw i32 %112, 1
  store i32 %113, ptr %19, align 4, !tbaa !35
  %114 = load i32, ptr %21, align 4, !tbaa !35
  %115 = load i32, ptr %11, align 4, !tbaa !35
  %116 = load i32, ptr %15, align 4, !tbaa !35
  %117 = sub nsw i32 %115, %116
  %118 = icmp sgt i32 %114, %117
  br i1 %118, label %119, label %123

119:                                              ; preds = %109
  %120 = load i32, ptr %11, align 4, !tbaa !35
  %121 = load i32, ptr %15, align 4, !tbaa !35
  %122 = sub nsw i32 %120, %121
  br label %125

123:                                              ; preds = %109
  %124 = load i32, ptr %21, align 4, !tbaa !35
  br label %125

125:                                              ; preds = %123, %119
  %126 = phi i32 [ %122, %119 ], [ %124, %123 ]
  store i32 %126, ptr %21, align 4, !tbaa !35
  store i32 0, ptr %20, align 4, !tbaa !35
  br label %127

127:                                              ; preds = %146, %125
  %128 = load i32, ptr %20, align 4, !tbaa !35
  %129 = load i32, ptr %21, align 4, !tbaa !35
  %130 = icmp slt i32 %128, %129
  br i1 %130, label %131, label %149

131:                                              ; preds = %127
  %132 = load i8, ptr %18, align 1, !tbaa !34
  %133 = load ptr, ptr %8, align 8, !tbaa !45
  %134 = load i32, ptr %16, align 4, !tbaa !35
  %135 = load i32, ptr %13, align 4, !tbaa !35
  %136 = mul nsw i32 %134, %135
  %137 = load i32, ptr %15, align 4, !tbaa !35
  %138 = mul nsw i32 %137, 4
  %139 = add nsw i32 %136, %138
  %140 = load i32, ptr %17, align 4, !tbaa !35
  %141 = add nsw i32 %139, %140
  %142 = sext i32 %141 to i64
  %143 = getelementptr inbounds i8, ptr %133, i64 %142
  store i8 %132, ptr %143, align 1, !tbaa !34
  %144 = load i32, ptr %15, align 4, !tbaa !35
  %145 = add nsw i32 %144, 1
  store i32 %145, ptr %15, align 4, !tbaa !35
  br label %146

146:                                              ; preds = %131
  %147 = load i32, ptr %20, align 4, !tbaa !35
  %148 = add nsw i32 %147, 1
  store i32 %148, ptr %20, align 4, !tbaa !35
  br label %127, !llvm.loop !157

149:                                              ; preds = %127
  br label %150

150:                                              ; preds = %149, %61
  %151 = load i32, ptr %15, align 4, !tbaa !35
  %152 = load i32, ptr %11, align 4, !tbaa !35
  %153 = icmp sge i32 %151, %152
  br i1 %153, label %154, label %171

154:                                              ; preds = %150
  %155 = load i32, ptr %17, align 4, !tbaa !35
  %156 = add nsw i32 %155, 1
  store i32 %156, ptr %17, align 4, !tbaa !35
  %157 = load i32, ptr %17, align 4, !tbaa !35
  %158 = icmp sge i32 %157, 4
  br i1 %158, label %159, label %167

159:                                              ; preds = %154
  %160 = load i32, ptr %16, align 4, !tbaa !35
  %161 = add nsw i32 %160, 1
  store i32 %161, ptr %16, align 4, !tbaa !35
  %162 = load i32, ptr %16, align 4, !tbaa !35
  %163 = load i32, ptr %12, align 4, !tbaa !35
  %164 = icmp sge i32 %162, %163
  br i1 %164, label %165, label %166

165:                                              ; preds = %159
  store i32 1, ptr %22, align 4
  br label %172

166:                                              ; preds = %159
  store i32 0, ptr %17, align 4, !tbaa !35
  br label %167

167:                                              ; preds = %166, %154
  store i32 0, ptr %15, align 4, !tbaa !35
  store i8 0, ptr %18, align 1, !tbaa !34
  %168 = load i32, ptr %19, align 4, !tbaa !35
  %169 = add nsw i32 %168, 1
  %170 = and i32 %169, -2
  store i32 %170, ptr %19, align 4, !tbaa !35
  br label %171

171:                                              ; preds = %167, %150
  store i32 0, ptr %22, align 4
  br label %172

172:                                              ; preds = %171, %165, %86
  call void @llvm.lifetime.end.p0(i64 4, ptr %21) #9
  %173 = load i32, ptr %22, align 4
  switch i32 %173, label %176 [
    i32 0, label %174
  ]

174:                                              ; preds = %172
  br label %23, !llvm.loop !158

175:                                              ; preds = %23
  store i32 0, ptr %22, align 4
  br label %176

176:                                              ; preds = %175, %172
  call void @llvm.lifetime.end.p0(i64 4, ptr %20) #9
  call void @llvm.lifetime.end.p0(i64 4, ptr %19) #9
  call void @llvm.lifetime.end.p0(i64 1, ptr %18) #9
  call void @llvm.lifetime.end.p0(i64 4, ptr %17) #9
  call void @llvm.lifetime.end.p0(i64 4, ptr %16) #9
  call void @llvm.lifetime.end.p0(i64 4, ptr %15) #9
  %177 = load i32, ptr %22, align 4
  switch i32 %177, label %179 [
    i32 0, label %178
    i32 1, label %178
  ]

178:                                              ; preds = %176, %176
  ret void

179:                                              ; preds = %176
  unreachable
}