; Function Attrs: nofree norecurse nosync nounwind memory(argmem: readwrite) uwtable
define internal fastcc void @decode_deep_tvdc32(ptr noundef writeonly captures(none) %0, ptr noundef readonly captures(none) %1, i32 noundef %2, i32 noundef %3, i32 noundef %4, i32 noundef %5, ptr noundef readonly captures(none) %6) unnamed_addr #6 {
  %8 = shl nsw i32 %2, 1
  %9 = icmp sgt i32 %2, 0
  br i1 %9, label %.lr.ph97, label %.thread

.lr.ph97:                                         ; preds = %7, %62
  %.05296 = phi i32 [ %.2, %62 ], [ 0, %7 ]
  %.05395 = phi i8 [ %.255, %62 ], [ 0, %7 ]
  %.05793 = phi i32 [ %.158, %62 ], [ 0, %7 ]
  %.06192 = phi i32 [ %.162, %62 ], [ 0, %7 ]
  %.06591 = phi i32 [ %.267, %62 ], [ 0, %7 ]
  %10 = and i32 %.05296, 1
  %.not = icmp eq i32 %10, 0
  %11 = ashr i32 %.05296, 1
  %12 = sext i32 %11 to i64
  %13 = getelementptr inbounds i8, ptr %1, i64 %12
  %14 = load i8, ptr %13, align 1, !tbaa !30
  %15 = and i8 %14, 15
  %16 = lshr i8 %14, 4
  %.in = select i1 %.not, i8 %16, i8 %15
  %17 = zext nneg i8 %.in to i64
  %18 = getelementptr inbounds nuw i16, ptr %6, i64 %17
  %19 = load i16, ptr %18, align 2, !tbaa !47
  %20 = add nsw i32 %.05296, 1
  %.not77 = icmp eq i16 %19, 0
  br i1 %.not77, label %31, label %21

21:                                               ; preds = %.lr.ph97
  %22 = trunc i16 %19 to i8
  %23 = add i8 %.05395, %22
  %24 = mul nsw i32 %.06192, %5
  %25 = shl nsw i32 %.06591, 2
  %26 = add nsw i32 %24, %25
  %27 = add nsw i32 %26, %.05793
  %28 = sext i32 %27 to i64
  %29 = getelementptr inbounds i8, ptr %0, i64 %28
  store i8 %23, ptr %29, align 1, !tbaa !30
  %30 = add nsw i32 %.06591, 1
  br label %.loopexit

31:                                               ; preds = %.lr.ph97
  %.not78 = icmp slt i32 %20, %8
  br i1 %.not78, label %32, label %.thread

32:                                               ; preds = %31
  %33 = add nsw i32 %.05296, 2
  %34 = sub nsw i32 %3, %.06591
  %35 = icmp sgt i32 %34, 0
  br i1 %35, label %.lr.ph, label %.loopexit

.lr.ph:                                           ; preds = %32
  %36 = ashr i32 %20, 1
  %37 = sext i32 %36 to i64
  %38 = getelementptr inbounds i8, ptr %1, i64 %37
  %39 = load i8, ptr %38, align 1, !tbaa !30
  %40 = and i8 %39, 15
  %41 = lshr i8 %39, 4
  %.in80 = select i1 %.not, i8 %40, i8 %41
  %narrow = add nuw nsw i8 %.in80, 1
  %42 = zext nneg i8 %narrow to i32
  %43 = tail call i32 @llvm.umin.i32(i32 %34, i32 %42)
  %44 = mul nsw i32 %.06192, %5
  %45 = add i32 %.05793, %44
  %46 = sext i32 %.06591 to i64
  br label %47

47:                                               ; preds = %.lr.ph, %47
  %indvars.iv = phi i64 [ %46, %.lr.ph ], [ %indvars.iv.next, %47 ]
  %.05190 = phi i32 [ 0, %.lr.ph ], [ %52, %47 ]
  %indvars.iv.tr = trunc i64 %indvars.iv to i32
  %48 = shl i32 %indvars.iv.tr, 2
  %49 = add i32 %45, %48
  %50 = sext i32 %49 to i64
  %51 = getelementptr inbounds i8, ptr %0, i64 %50
  store i8 %.05395, ptr %51, align 1, !tbaa !30
  %indvars.iv.next = add nsw i64 %indvars.iv, 1
  %52 = add nuw nsw i32 %.05190, 1
  %exitcond.not = icmp eq i32 %52, %43
  br i1 %exitcond.not, label %.loopexit.loopexit, label %47, !llvm.loop !168

.loopexit.loopexit:                               ; preds = %47
  %53 = trunc nsw i64 %indvars.iv.next to i32
  br label %.loopexit

.loopexit:                                        ; preds = %.loopexit.loopexit, %32, %21
  %.166 = phi i32 [ %30, %21 ], [ %.06591, %32 ], [ %53, %.loopexit.loopexit ]
  %.154 = phi i8 [ %23, %21 ], [ %.05395, %32 ], [ %.05395, %.loopexit.loopexit ]
  %.1 = phi i32 [ %20, %21 ], [ %33, %32 ], [ %33, %.loopexit.loopexit ]
  %.not81 = icmp slt i32 %.166, %3
  br i1 %.not81, label %62, label %54

54:                                               ; preds = %.loopexit
  %55 = add nsw i32 %.05793, 1
  %56 = icmp sgt i32 %.05793, 2
  br i1 %56, label %57, label %59

57:                                               ; preds = %54
  %58 = add nsw i32 %.06192, 1
  %.not82 = icmp slt i32 %58, %4
  br i1 %.not82, label %59, label %.thread

59:                                               ; preds = %57, %54
  %.364 = phi i32 [ %.06192, %54 ], [ %58, %57 ]
  %.360 = phi i32 [ %55, %54 ], [ 0, %57 ]
  %60 = add nsw i32 %.1, 1
  %61 = and i32 %60, -2
  br label %62

62:                                               ; preds = %.loopexit, %59
  %.267 = phi i32 [ 0, %59 ], [ %.166, %.loopexit ]
  %.162 = phi i32 [ %.364, %59 ], [ %.06192, %.loopexit ]
  %.158 = phi i32 [ %.360, %59 ], [ %.05793, %.loopexit ]
  %.255 = phi i8 [ 0, %59 ], [ %.154, %.loopexit ]
  %.2 = phi i32 [ %61, %59 ], [ %.1, %.loopexit ]
  %63 = icmp slt i32 %.2, %8
  br i1 %63, label %.lr.ph97, label %.thread, !llvm.loop !169

.thread:                                          ; preds = %62, %31, %57, %7
  ret void
}